target datalayout = "e-m:e-p270:32:32-p271:32:32-p272:64:64-i64:64-i128:128-f80:128-n8:16:32:64-S128"
target triple = "x86_64-pc-linux-gnu"

%struct._DlsMat = type { i32, i64, i64, i64, i64, i64, i64, ptr, i64, ptr }

; Function Attrs: nounwind uwtable
define void @bandCopy(ptr noundef %0, ptr noundef %1, i64 noundef %2, i64 noundef %3, i64 noundef %4, i64 noundef %5, i64 noundef %6) #0 {
  %8 = alloca ptr, align 8
  %9 = alloca ptr, align 8
  %10 = alloca i64, align 8
  %11 = alloca i64, align 8
  %12 = alloca i64, align 8
  %13 = alloca i64, align 8
  %14 = alloca i64, align 8
  %15 = alloca i64, align 8
  %16 = alloca i64, align 8
  %17 = alloca i64, align 8
  %18 = alloca ptr, align 8
  %19 = alloca ptr, align 8
  store ptr %0, ptr %8, align 8, !tbaa !20
  store ptr %1, ptr %9, align 8, !tbaa !20
  store i64 %2, ptr %10, align 8, !tbaa !21
  store i64 %3, ptr %11, align 8, !tbaa !21
  store i64 %4, ptr %12, align 8, !tbaa !21
  store i64 %5, ptr %13, align 8, !tbaa !21
  store i64 %6, ptr %14, align 8, !tbaa !21
  call void @llvm.lifetime.start.p0(i64 8, ptr %15) #4
  call void @llvm.lifetime.start.p0(i64 8, ptr %16) #4
  call void @llvm.lifetime.start.p0(i64 8, ptr %17) #4
  call void @llvm.lifetime.start.p0(i64 8, ptr %18) #4
  call void @llvm.lifetime.start.p0(i64 8, ptr %19) #4
  %20 = load i64, ptr %13, align 8, !tbaa !21
  %21 = load i64, ptr %14, align 8, !tbaa !21
  %22 = add nsw i64 %20, %21
  %23 = add nsw i64 %22, 1
  store i64 %23, ptr %17, align 8, !tbaa !21
  store i64 0, ptr %16, align 8, !tbaa !21
  br label %24

24:                                               ; preds = %63, %7
  %25 = load i64, ptr %16, align 8, !tbaa !21
  %26 = load i64, ptr %10, align 8, !tbaa !21
  %27 = icmp slt i64 %25, %26
  br i1 %27, label %28, label %66

28:                                               ; preds = %24
  %29 = load ptr, ptr %8, align 8, !tbaa !20
  %30 = load i64, ptr %16, align 8, !tbaa !21
  %31 = getelementptr inbounds ptr, ptr %29, i64 %30
  %32 = load ptr, ptr %31, align 8, !tbaa !22
  %33 = load i64, ptr %11, align 8, !tbaa !21
  %34 = getelementptr inbounds double, ptr %32, i64 %33
  %35 = load i64, ptr %13, align 8, !tbaa !21
  %36 = sub i64 0, %35
  %37 = getelementptr inbounds double, ptr %34, i64 %36
  store ptr %37, ptr %18, align 8, !tbaa !22
  %38 = load ptr, ptr %9, align 8, !tbaa !20
  %39 = load i64, ptr %16, align 8, !tbaa !21
  %40 = getelementptr inbounds ptr, ptr %38, i64 %39
  %41 = load ptr, ptr %40, align 8, !tbaa !22
  %42 = load i64, ptr %12, align 8, !tbaa !21
  %43 = getelementptr inbounds double, ptr %41, i64 %42
  %44 = load i64, ptr %13, align 8, !tbaa !21
  %45 = sub i64 0, %44
  %46 = getelementptr inbounds double, ptr %43, i64 %45
  store ptr %46, ptr %19, align 8, !tbaa !22
  store i64 0, ptr %15, align 8, !tbaa !21
  br label %47

47:                                               ; preds = %59, %28
  %48 = load i64, ptr %15, align 8, !tbaa !21
  %49 = load i64, ptr %17, align 8, !tbaa !21
  %50 = icmp slt i64 %48, %49
  br i1 %50, label %51, label %62

51:                                               ; preds = %47
  %52 = load ptr, ptr %18, align 8, !tbaa !22
  %53 = load i64, ptr %15, align 8, !tbaa !21
  %54 = getelementptr inbounds double, ptr %52, i64 %53
  %55 = load double, ptr %54, align 8, !tbaa !23
  %56 = load ptr, ptr %19, align 8, !tbaa !22
  %57 = load i64, ptr %15, align 8, !tbaa !21
  %58 = getelementptr inbounds double, ptr %56, i64 %57
  store double %55, ptr %58, align 8, !tbaa !23
  br label %59

59:                                               ; preds = %51
  %60 = load i64, ptr %15, align 8, !tbaa !21
  %61 = add nsw i64 %60, 1
  store i64 %61, ptr %15, align 8, !tbaa !21
  br label %47, !llvm.loop !38

62:                                               ; preds = %47
  br label %63

63:                                               ; preds = %62
  %64 = load i64, ptr %16, align 8, !tbaa !21
  %65 = add nsw i64 %64, 1
  store i64 %65, ptr %16, align 8, !tbaa !21
  br label %24, !llvm.loop !39

66:                                               ; preds = %24
  call void @llvm.lifetime.end.p0(i64 8, ptr %19) #4
  call void @llvm.lifetime.end.p0(i64 8, ptr %18) #4
  call void @llvm.lifetime.end.p0(i64 8, ptr %17) #4
  call void @llvm.lifetime.end.p0(i64 8, ptr %16) #4
  call void @llvm.lifetime.end.p0(i64 8, ptr %15) #4
  ret void
}

; Function Attrs: nounwind uwtable
define void @BandCopy(ptr noundef %0, ptr noundef %1, i64 noundef %2, i64 noundef %3) #0 {
  %5 = alloca ptr, align 8
  %6 = alloca ptr, align 8
  %7 = alloca i64, align 8
  %8 = alloca i64, align 8
  store ptr %0, ptr %5, align 8, !tbaa !3
  store ptr %1, ptr %6, align 8, !tbaa !3
  store i64 %2, ptr %7, align 8, !tbaa !21
  store i64 %3, ptr %8, align 8, !tbaa !21
  %9 = load ptr, ptr %5, align 8, !tbaa !3
  %10 = getelementptr inbounds nuw %struct._DlsMat, ptr %9, i32 0, i32 9
  %11 = load ptr, ptr %10, align 8, !tbaa !10
  %12 = load ptr, ptr %6, align 8, !tbaa !3
  %13 = getelementptr inbounds nuw %struct._DlsMat, ptr %12, i32 0, i32 9
  %14 = load ptr, ptr %13, align 8, !tbaa !10
  %15 = load ptr, ptr %5, align 8, !tbaa !3
  %16 = getelementptr inbounds nuw %struct._DlsMat, ptr %15, i32 0, i32 1
  %17 = load i64, ptr %16, align 8, !tbaa !16
  %18 = load ptr, ptr %5, align 8, !tbaa !3
  %19 = getelementptr inbounds nuw %struct._DlsMat, ptr %18, i32 0, i32 6
  %20 = load i64, ptr %19, align 8, !tbaa !19
  %21 = load ptr, ptr %6, align 8, !tbaa !3
  %22 = getelementptr inbounds nuw %struct._DlsMat, ptr %21, i32 0, i32 6
  %23 = load i64, ptr %22, align 8, !tbaa !19
  %24 = load i64, ptr %7, align 8, !tbaa !21
  %25 = load i64, ptr %8, align 8, !tbaa !21
  call void @bandCopy(ptr noundef %11, ptr noundef %14, i64 noundef %17, i64 noundef %20, i64 noundef %23, i64 noundef %24, i64 noundef %25)
  ret void
}